target datalayout = "e-m:e-p270:32:32-p271:32:32-p272:64:64-i64:64-i128:128-f80:128-n8:16:32:64-S128"
target triple = "x86_64-pc-linux-gnu"

%"class.llvm::SmallVectorBase" = type { ptr, i32, i32 }
%"class.llvm::Value" = type { i8, i8, i16, i32, ptr, ptr }
%"class.llvm::Evaluator" = type { %"class.std::deque", %"class.llvm::SmallVector.44", %"class.llvm::DenseMap", %"class.llvm::SmallVector.49", %"class.llvm::SmallPtrSet", %"class.llvm::SmallPtrSet.54", ptr, ptr }
%"class.std::deque" = type { %"class.std::_Deque_base" }
%"class.std::_Deque_base" = type { %"struct.std::_Deque_base<llvm::DenseMap<llvm::Value *, llvm::Constant *>, std::allocator<llvm::DenseMap<llvm::Value *, llvm::Constant *>>>::_Deque_impl" }
%"struct.std::_Deque_base<llvm::DenseMap<llvm::Value *, llvm::Constant *>, std::allocator<llvm::DenseMap<llvm::Value *, llvm::Constant *>>>::_Deque_impl" = type { %"struct.std::_Deque_base<llvm::DenseMap<llvm::Value *, llvm::Constant *>, std::allocator<llvm::DenseMap<llvm::Value *, llvm::Constant *>>>::_Deque_impl_data" }
%"struct.std::_Deque_base<llvm::DenseMap<llvm::Value *, llvm::Constant *>, std::allocator<llvm::DenseMap<llvm::Value *, llvm::Constant *>>>::_Deque_impl_data" = type { ptr, i64, %"struct.std::_Deque_iterator", %"struct.std::_Deque_iterator" }
%"struct.std::_Deque_iterator" = type { ptr, ptr, ptr, ptr }
%"class.llvm::SmallVector.44" = type { %"class.llvm::SmallVectorImpl.45", %"struct.llvm::SmallVectorStorage.48" }
%"class.llvm::SmallVectorImpl.45" = type { %"class.llvm::SmallVectorTemplateBase.46" }
%"class.llvm::SmallVectorTemplateBase.46" = type { %"class.llvm::SmallVectorTemplateCommon.47" }
%"class.llvm::SmallVectorTemplateCommon.47" = type { %"class.llvm::SmallVectorBase" }
%"struct.llvm::SmallVectorStorage.48" = type { [32 x i8] }
%"class.llvm::DenseMap" = type <{ ptr, i32, i32, i32, [4 x i8] }>
%"class.llvm::SmallVector.49" = type { %"class.llvm::SmallVectorImpl.50", %"struct.llvm::SmallVectorStorage.53" }
%"class.llvm::SmallVectorImpl.50" = type { %"class.llvm::SmallVectorTemplateBase.51" }
%"class.llvm::SmallVectorTemplateBase.51" = type { %"class.llvm::SmallVectorTemplateCommon.52" }
%"class.llvm::SmallVectorTemplateCommon.52" = type { %"class.llvm::SmallVectorBase" }
%"struct.llvm::SmallVectorStorage.53" = type { [256 x i8] }
%"class.llvm::SmallPtrSet" = type { %"class.llvm::SmallPtrSetImpl.base", [8 x ptr] }
%"class.llvm::SmallPtrSetImpl.base" = type { %"class.llvm::SmallPtrSetImplBase.base" }
%"class.llvm::SmallPtrSetImplBase.base" = type <{ ptr, ptr, i32, i32, i32 }>
%"class.llvm::SmallPtrSet.54" = type { %"class.llvm::SmallPtrSetImpl.base.56", [8 x ptr] }
%"class.llvm::SmallPtrSetImpl.base.56" = type { %"class.llvm::SmallPtrSetImplBase.base" }

; Function Attrs: mustprogress nounwind uwtable
define linkonce_odr hidden noundef ptr @_ZNK4llvm5Value7getTypeEv(ptr noundef nonnull align 8 dereferenceable(24) %0) #0 comdat align 2 {
  %2 = alloca ptr, align 8
  store ptr %0, ptr %2, align 8
  %3 = load ptr, ptr %2, align 8
  %4 = getelementptr inbounds nuw %"class.llvm::Value", ptr %3, i32 0, i32 4
  %5 = load ptr, ptr %4, align 8
  ret ptr %5
}

; Function Attrs: mustprogress nounwind uwtable
define dso_local noundef ptr @_ZN4llvm9Evaluator22castCallResultIfNeededEPNS_4TypeEPNS_8ConstantE(ptr noundef nonnull align 8 dereferenceable(632) %0, ptr noundef %1, ptr noundef %2) #0 align 2 {
  %4 = alloca ptr, align 8
  %5 = alloca ptr, align 8
  %6 = alloca ptr, align 8
  %7 = alloca ptr, align 8
  store ptr %0, ptr %5, align 8
  store ptr %1, ptr %6, align 8
  store ptr %2, ptr %7, align 8
  %8 = load ptr, ptr %5, align 8
  %9 = load ptr, ptr %7, align 8
  %10 = icmp ne ptr %9, null
  br i1 %10, label %11, label %16

11:                                               ; preds = %3
  %12 = load ptr, ptr %7, align 8
  %13 = call noundef ptr @_ZNK4llvm5Value7getTypeEv(ptr noundef nonnull align 8 dereferenceable(24) %12)
  %14 = load ptr, ptr %6, align 8
  %15 = icmp eq ptr %13, %14
  br i1 %15, label %16, label %18

16:                                               ; preds = %11, %3
  %17 = load ptr, ptr %7, align 8
  store ptr %17, ptr %4, align 8
  br label %31

18:                                               ; preds = %11
  %19 = load ptr, ptr %7, align 8
  %20 = load ptr, ptr %6, align 8
  %21 = getelementptr inbounds nuw %"class.llvm::Evaluator", ptr %8, i32 0, i32 6
  %22 = load ptr, ptr %21, align 8
  %23 = call noundef ptr @_ZN4llvm30ConstantFoldLoadThroughBitcastEPNS_8ConstantEPNS_4TypeERKNS_10DataLayoutE(ptr noundef %19, ptr noundef %20, ptr noundef nonnull align 8 dereferenceable(512) %22)
  store ptr %23, ptr %7, align 8
  %24 = load ptr, ptr %7, align 8
  %25 = icmp ne ptr %24, null
  br i1 %25, label %29, label %26

26:                                               ; preds = %18
  br label %27

27:                                               ; preds = %26
  br label %28

28:                                               ; preds = %27
  br label %29

29:                                               ; preds = %28, %18
  %30 = load ptr, ptr %7, align 8
  store ptr %30, ptr %4, align 8
  br label %31

31:                                               ; preds = %29, %16
  %32 = load ptr, ptr %4, align 8
  ret ptr %32
}