; Function Attrs: mustprogress nounwind uwtable
define dso_local noundef ptr @_ZN4llvm9Evaluator22castCallResultIfNeededEPNS_4TypeEPNS_8ConstantE(ptr nocapture noundef nonnull readonly align 8 dereferenceable(632) %0, ptr noundef %1, ptr noundef %2) local_unnamed_addr #0 align 2 {
  %.not = icmp eq ptr %2, null
  br i1 %.not, label %12, label %4

4:                                                ; preds = %3
  %5 = getelementptr inbounds nuw i8, ptr %2, i64 8
  %6 = load ptr, ptr %5, align 8
  %7 = icmp eq ptr %6, %1
  br i1 %7, label %12, label %8

8:                                                ; preds = %4
  %9 = getelementptr inbounds nuw i8, ptr %0, i64 616
  %10 = load ptr, ptr %9, align 8
  %11 = tail call noundef ptr @_ZN4llvm30ConstantFoldLoadThroughBitcastEPNS_8ConstantEPNS_4TypeERKNS_10DataLayoutE(ptr noundef nonnull %2, ptr noundef %1, ptr noundef nonnull align 8 dereferenceable(512) %10) #14
  br label %12

12:                                               ; preds = %3, %4, %8
  %.0 = phi ptr [ %11, %8 ], [ %2, %4 ], [ null, %3 ]
  ret ptr %.0
}